target datalayout = "e-m:e-p270:32:32-p271:32:32-p272:64:64-i64:64-i128:128-f80:128-n8:16:32:64-S128"
target triple = "x86_64-pc-linux-gnu"

@.str.31 = private unnamed_addr constant [26 x i8] c"SDL.texture.create.format\00", align 1
@.str.32 = private unnamed_addr constant [26 x i8] c"SDL.texture.create.access\00", align 1
@.str.33 = private unnamed_addr constant [25 x i8] c"SDL.texture.create.width\00", align 1
@.str.34 = private unnamed_addr constant [26 x i8] c"SDL.texture.create.height\00", align 1

; Function Attrs: nounwind uwtable
define hidden ptr @SDL_CreateTexture_REAL(ptr noundef %0, i32 noundef %1, i32 noundef %2, i32 noundef %3, i32 noundef %4) #0 {
  %6 = alloca ptr, align 8
  %7 = alloca i32, align 4
  %8 = alloca i32, align 4
  %9 = alloca i32, align 4
  %10 = alloca i32, align 4
  %11 = alloca ptr, align 8
  %12 = alloca i32, align 4
  store ptr %0, ptr %6, align 8
  store i32 %1, ptr %7, align 4
  store i32 %2, ptr %8, align 4
  store i32 %3, ptr %9, align 4
  store i32 %4, ptr %10, align 4
  call void @llvm.lifetime.start.p0(i64 8, ptr %11) #10
  call void @llvm.lifetime.start.p0(i64 4, ptr %12) #10
  %13 = call i32 @SDL_CreateProperties_REAL()
  store i32 %13, ptr %12, align 4
  %14 = load i32, ptr %12, align 4
  %15 = load i32, ptr %7, align 4
  %16 = zext i32 %15 to i64
  %17 = call zeroext i1 @SDL_SetNumberProperty_REAL(i32 noundef %14, ptr noundef @.str.31, i64 noundef %16)
  %18 = load i32, ptr %12, align 4
  %19 = load i32, ptr %8, align 4
  %20 = zext i32 %19 to i64
  %21 = call zeroext i1 @SDL_SetNumberProperty_REAL(i32 noundef %18, ptr noundef @.str.32, i64 noundef %20)
  %22 = load i32, ptr %12, align 4
  %23 = load i32, ptr %9, align 4
  %24 = sext i32 %23 to i64
  %25 = call zeroext i1 @SDL_SetNumberProperty_REAL(i32 noundef %22, ptr noundef @.str.33, i64 noundef %24)
  %26 = load i32, ptr %12, align 4
  %27 = load i32, ptr %10, align 4
  %28 = sext i32 %27 to i64
  %29 = call zeroext i1 @SDL_SetNumberProperty_REAL(i32 noundef %26, ptr noundef @.str.34, i64 noundef %28)
  %30 = load ptr, ptr %6, align 8
  %31 = load i32, ptr %12, align 4
  %32 = call ptr @SDL_CreateTextureWithProperties_REAL(ptr noundef %30, i32 noundef %31)
  store ptr %32, ptr %11, align 8
  %33 = load i32, ptr %12, align 4
  call void @SDL_DestroyProperties_REAL(i32 noundef %33)
  %34 = load ptr, ptr %11, align 8
  call void @llvm.lifetime.end.p0(i64 4, ptr %12) #10
  call void @llvm.lifetime.end.p0(i64 8, ptr %11) #10
  ret ptr %34
}