; Function Attrs: nounwind uwtable
define hidden noundef ptr @SDL_CreateTexture_REAL(ptr noundef %0, i32 noundef %1, i32 noundef %2, i32 noundef %3, i32 noundef %4) local_unnamed_addr #0 {
  %6 = tail call i32 @SDL_CreateProperties_REAL() #15
  %7 = zext i32 %1 to i64
  %8 = tail call zeroext i1 @SDL_SetNumberProperty_REAL(i32 noundef %6, ptr noundef nonnull @.str.31, i64 noundef %7) #15
  %9 = zext i32 %2 to i64
  %10 = tail call zeroext i1 @SDL_SetNumberProperty_REAL(i32 noundef %6, ptr noundef nonnull @.str.32, i64 noundef %9) #15
  %11 = sext i32 %3 to i64
  %12 = tail call zeroext i1 @SDL_SetNumberProperty_REAL(i32 noundef %6, ptr noundef nonnull @.str.33, i64 noundef %11) #15
  %13 = sext i32 %4 to i64
  %14 = tail call zeroext i1 @SDL_SetNumberProperty_REAL(i32 noundef %6, ptr noundef nonnull @.str.34, i64 noundef %13) #15
  %15 = tail call ptr @SDL_CreateTextureWithProperties_REAL(ptr noundef %0, i32 noundef %6)
  tail call void @SDL_DestroyProperties_REAL(i32 noundef %6) #15
  ret ptr %15
}